; ModuleID = '40/635.c'
source_filename = "40/635.c"
target datalayout = "e-m:e-p270:32:32-p271:32:32-p272:64:64-i64:64-f80:128-n8:16:32:64-S128"
target triple = "x86_64-pc-linux-gnu"

@.str = private unnamed_addr constant [16 x i8] c"%lf%lf%lf%lf%lf\00", align 1
@.str.1 = private unnamed_addr constant [7 x i8] c"%.4lf\0A\00", align 1
@.str.2 = private unnamed_addr constant [14 x i8] c"Invalid input\00", align 1

; Function Attrs: noinline nounwind uwtable
define dso_local i32 @main() #0 {
  %1 = alloca i32, align 4
  %2 = alloca double, align 8
  %3 = alloca double, align 8
  %4 = alloca double, align 8
  %5 = alloca double, align 8
  %6 = alloca double, align 8
  %7 = alloca double, align 8
  %8 = alloca double, align 8
  %9 = alloca double, align 8
  %10 = alloca double, align 8
  store i32 0, i32* %1, align 4
  %11 = call i32 (i8*, ...) @__isoc99_scanf(i8* getelementptr inbounds ([16 x i8], [16 x i8]* @.str, i64 0, i64 0), double* %2, double* %3, double* %4, double* %5, double* %6)
  %12 = load double, double* %6, align 8
  %13 = fmul double %12, 1.000000e+02
  %14 = fdiv double %13, 1.800000e+02
  store double %14, double* %10, align 8
  %15 = load double, double* %2, align 8
  %16 = load double, double* %3, align 8
  %17 = fadd double %15, %16
  %18 = load double, double* %4, align 8
  %19 = fadd double %17, %18
  %20 = load double, double* %5, align 8
  %21 = fadd double %19, %20
  %22 = fdiv double %21, 2.000000e+00
  store double %22, double* %7, align 8
  %23 = load double, double* %7, align 8
  %24 = load double, double* %2, align 8
  %25 = fsub double %23, %24
  %26 = load double, double* %7, align 8
  %27 = load double, double* %3, align 8
  %28 = fsub double %26, %27
  %29 = fmul double %25, %28
  %30 = load double, double* %7, align 8
  %31 = load double, double* %4, align 8
  %32 = fsub double %30, %31
  %33 = fmul double %29, %32
  %34 = load double, double* %7, align 8
  %35 = load double, double* %5, align 8
  %36 = fsub double %34, %35
  %37 = fmul double %33, %36
  %38 = load double, double* %2, align 8
  %39 = load double, double* %3, align 8
  %40 = fmul double %38, %39
  %41 = load double, double* %4, align 8
  %42 = fmul double %40, %41
  %43 = load double, double* %5, align 8
  %44 = fmul double %42, %43
  %45 = load double, double* %10, align 8
  %46 = fdiv double %45, 2.000000e+00
  %47 = call double @cos(double %46) #3
  %48 = fmul double %44, %47
  %49 = load double, double* %10, align 8
  %50 = fdiv double %49, 2.000000e+00
  %51 = call double @cos(double %50) #3
  %52 = fmul double %48, %51
  %53 = fsub double %37, %52
  store double %53, double* %8, align 8
  %54 = load double, double* %8, align 8
  %55 = call double @sqrt(double %54) #3
  store double %55, double* %9, align 8
  %56 = load double, double* %6, align 8
  %57 = fcmp ogt double %56, 0.000000e+00
  br i1 %57, label %58, label %70

58:                                               ; preds = %0
  %59 = load double, double* %6, align 8
  %60 = fcmp olt double %59, 3.600000e+02
  br i1 %60, label %61, label %70

61:                                               ; preds = %58
  %62 = load double, double* %8, align 8
  %63 = fcmp ogt double %62, 0.000000e+00
  br i1 %63, label %64, label %67

64:                                               ; preds = %61
  %65 = load double, double* %9, align 8
  %66 = call i32 (i8*, ...) @printf(i8* getelementptr inbounds ([7 x i8], [7 x i8]* @.str.1, i64 0, i64 0), double %65)
  br label %69

67:                                               ; preds = %61
  %68 = call i32 (i8*, ...) @printf(i8* getelementptr inbounds ([14 x i8], [14 x i8]* @.str.2, i64 0, i64 0))
  br label %69

69:                                               ; preds = %67, %64
  br label %70

70:                                               ; preds = %69, %58, %0
  ret i32 0
}

declare dso_local i32 @__isoc99_scanf(i8*, ...) #1

; Function Attrs: nounwind
declare dso_local double @cos(double) #2

; Function Attrs: nounwind
declare dso_local double @sqrt(double) #2

declare dso_local i32 @printf(i8*, ...) #1


!llvm.module.flags = !{!0}
!llvm.ident = !{!1}

!0 = !{i32 1, !"wchar_size", i32 4}
!1 = !{!"clang version 10.0.0-4ubuntu1 "}
